target datalayout = "e-m:e-p270:32:32-p271:32:32-p272:64:64-i64:64-i128:128-f80:128-n8:16:32:64-S128"
target triple = "x86_64-pc-linux-gnu"

%struct.AVCodecContext = type { ptr, i32, i32, ptr, i32, i32, ptr, ptr, ptr, i64, i32, i32, ptr, i32, %struct.AVRational, %struct.AVRational, %struct.AVRational, i32, i32, i32, i32, i32, %struct.AVRational, i32, i32, i32, i32, i32, i32, i32, i32, i32, i32, i32, ptr, ptr, i32, float, float, float, float, float, float, float, float, float, i32, i32, i32, i32, i32, i32, i32, i32, i32, i32, i32, i32, ptr, ptr, ptr, i32, i32, i32, i32, i32, i32, i32, i32, i32, i32, %struct.AVChannelLayout, i32, i32, i32, i32, i32, i32, i32, i32, ptr, i32, i32, i32, float, float, i32, i32, i32, i32, i32, ptr, i64, i64, float, float, i32, i32, ptr, ptr, i32, i32, i32, i32, i32, ptr, ptr, ptr, ptr, i32, i32, [8 x i64], i32, i32, i32, i32, i32, i32, i32, ptr, ptr, i32, i32, i32, i32, i32, i32, i32, i32, i32, i32, ptr, ptr, i32, i32, ptr, ptr, ptr, ptr, i32, i32, i64, i32, i32, i64, ptr, i64, ptr, i32, ptr, i32 }
%struct.AVRational = type { i32, i32 }
%struct.AVChannelLayout = type { i32, i32, %union.anon.1, ptr }
%union.anon.1 = type { i64 }
%struct.V4L2m2mContext = type { [4096 x i8], i32, %struct.V4L2Context, %struct.V4L2Context, ptr, %union.sem_t, i32, i32, i32, %struct.AVPacket, ptr, ptr, ptr }
%struct.V4L2Context = type { ptr, i32, i32, i32, %struct.v4l2_format, i32, i32, %struct.AVRational, ptr, i32, i32, i32 }
%struct.v4l2_format = type { i32, %union.anon.2 }
%union.anon.2 = type { %struct.v4l2_window, [144 x i8] }
%struct.v4l2_window = type { %struct.v4l2_rect, i32, i32, ptr, i32, ptr, i8 }
%struct.v4l2_rect = type { i32, i32, i32, i32 }
%union.sem_t = type { i64, [24 x i8] }
%struct.AVPacket = type { ptr, i64, i64, ptr, i32, i32, i32, ptr, i32, i64, i64, ptr, ptr, %struct.AVRational }
%struct.V4L2m2mPriv = type { ptr, ptr, i32, i32 }
%struct.AVFrame = type { [8 x ptr], [8 x i32], ptr, i32, i32, i32, i32, i32, %struct.AVRational, i64, i64, %struct.AVRational, i32, ptr, i32, i32, [8 x ptr], ptr, i32, ptr, i32, i32, i32, i32, i32, i32, i32, i64, ptr, i32, ptr, ptr, i64, i64, i64, i64, ptr, %struct.AVChannelLayout, i64 }
%struct.v4l2_ext_controls = type { %union.anon.5, i32, i32, i32, [1 x i32], ptr }
%union.anon.5 = type { i32 }
%struct.v4l2_ext_control = type <{ i32, i32, [1 x i32], %union.anon.6 }>
%union.anon.6 = type { i64 }

@.str.47 = private unnamed_addr constant [22 x i8] c"Failed to set %s: %s\0A\00", align 1
@.str.48 = private unnamed_addr constant [18 x i8] c"Encoder: %s = %d\0A\00", align 1
@.str.49 = private unnamed_addr constant [42 x i8] c"VIDIOC_STREAMON failed on output context\0A\00", align 1
@.str.50 = private unnamed_addr constant [43 x i8] c"VIDIOC_STREAMON failed on capture context\0A\00", align 1
@.str.51 = private unnamed_addr constant [16 x i8] c"force key frame\00", align 1

; Function Attrs: inlinehint nounwind uwtable
define internal void @v4l2_set_ext_ctrl(ptr noundef %0, i32 noundef %1, i32 noundef %2, ptr noundef %3, i32 noundef %4) #4 {
  %6 = alloca ptr, align 8
  %7 = alloca i32, align 4
  %8 = alloca i32, align 4
  %9 = alloca ptr, align 8
  %10 = alloca i32, align 4
  %11 = alloca %struct.v4l2_ext_controls, align 8
  %12 = alloca %struct.v4l2_ext_control, align 1
  store ptr %0, ptr %6, align 8, !tbaa !32
  store i32 %1, ptr %7, align 4, !tbaa !31
  store i32 %2, ptr %8, align 4, !tbaa !31
  store ptr %3, ptr %9, align 8, !tbaa !81
  store i32 %4, ptr %10, align 4, !tbaa !31
  call void @llvm.lifetime.start.p0(i64 32, ptr %11) #8
  call void @llvm.memset.p0.i64(ptr align 8 %11, i8 0, i64 32, i1 false)
  call void @llvm.lifetime.start.p0(i64 20, ptr %12) #8
  call void @llvm.memset.p0.i64(ptr align 1 %12, i8 0, i64 20, i1 false)
  %13 = getelementptr inbounds nuw %struct.v4l2_ext_controls, ptr %11, i32 0, i32 0
  store i32 10027008, ptr %13, align 8, !tbaa !52
  %14 = getelementptr inbounds nuw %struct.v4l2_ext_controls, ptr %11, i32 0, i32 5
  store ptr %12, ptr %14, align 8, !tbaa !82
  %15 = getelementptr inbounds nuw %struct.v4l2_ext_controls, ptr %11, i32 0, i32 1
  store i32 1, ptr %15, align 4, !tbaa !85
  %16 = load i32, ptr %8, align 4, !tbaa !31
  %17 = getelementptr inbounds nuw %struct.v4l2_ext_control, ptr %12, i32 0, i32 3
  store i32 %16, ptr %17, align 1, !tbaa !52
  %18 = load i32, ptr %7, align 4, !tbaa !31
  %19 = getelementptr inbounds nuw %struct.v4l2_ext_control, ptr %12, i32 0, i32 0
  store i32 %18, ptr %19, align 1, !tbaa !86
  %20 = load ptr, ptr %6, align 8, !tbaa !32
  %21 = getelementptr inbounds nuw %struct.V4L2m2mContext, ptr %20, i32 0, i32 1
  %22 = load i32, ptr %21, align 8, !tbaa !77
  %23 = call i32 (i32, i64, ...) @ioctl(i32 noundef %22, i64 noundef 3223344712, ptr noundef %11) #8
  %24 = icmp slt i32 %23, 0
  br i1 %24, label %25, label %42

25:                                               ; preds = %5
  %26 = load ptr, ptr %6, align 8, !tbaa !32
  %27 = getelementptr inbounds nuw %struct.V4L2m2mContext, ptr %26, i32 0, i32 4
  %28 = load ptr, ptr %27, align 8, !tbaa !47
  %29 = load i32, ptr %10, align 4, !tbaa !31
  %30 = icmp ne i32 %29, 0
  br i1 %30, label %35, label %31

31:                                               ; preds = %25
  %32 = call ptr @__errno_location() #9
  %33 = load i32, ptr %32, align 4, !tbaa !31
  %34 = icmp ne i32 %33, 22
  br label %35

35:                                               ; preds = %31, %25
  %36 = phi i1 [ true, %25 ], [ %34, %31 ]
  %37 = select i1 %36, i32 24, i32 48
  %38 = load ptr, ptr %9, align 8, !tbaa !81
  %39 = call ptr @__errno_location() #9
  %40 = load i32, ptr %39, align 4, !tbaa !31
  %41 = call ptr @strerror(i32 noundef %40) #8
  call void (ptr, i32, ptr, ...) @av_log(ptr noundef %28, i32 noundef %37, ptr noundef @.str.47, ptr noundef %38, ptr noundef %41)
  br label %48

42:                                               ; preds = %5
  %43 = load ptr, ptr %6, align 8, !tbaa !32
  %44 = getelementptr inbounds nuw %struct.V4L2m2mContext, ptr %43, i32 0, i32 4
  %45 = load ptr, ptr %44, align 8, !tbaa !47
  %46 = load ptr, ptr %9, align 8, !tbaa !81
  %47 = load i32, ptr %8, align 4, !tbaa !31
  call void (ptr, i32, ptr, ...) @av_log(ptr noundef %45, i32 noundef 48, ptr noundef @.str.48, ptr noundef %46, i32 noundef %47)
  br label %48

48:                                               ; preds = %42, %35
  call void @llvm.lifetime.end.p0(i64 20, ptr %12) #8
  call void @llvm.lifetime.end.p0(i64 32, ptr %11) #8
  ret void
}

; Function Attrs: nounwind uwtable
define internal i32 @v4l2_send_frame(ptr noundef %0, ptr noundef %1) #1 {
  %3 = alloca ptr, align 8
  %4 = alloca ptr, align 8
  %5 = alloca ptr, align 8
  %6 = alloca ptr, align 8
  store ptr %0, ptr %3, align 8, !tbaa !4
  store ptr %1, ptr %4, align 8, !tbaa !62
  call void @llvm.lifetime.start.p0(i64 8, ptr %5) #8
  %7 = load ptr, ptr %3, align 8, !tbaa !4
  %8 = getelementptr inbounds nuw %struct.AVCodecContext, ptr %7, i32 0, i32 6
  %9 = load ptr, ptr %8, align 8, !tbaa !9
  %10 = getelementptr inbounds nuw %struct.V4L2m2mPriv, ptr %9, i32 0, i32 1
  %11 = load ptr, ptr %10, align 8, !tbaa !59
  store ptr %11, ptr %5, align 8, !tbaa !32
  call void @llvm.lifetime.start.p0(i64 8, ptr %6) #8
  %12 = load ptr, ptr %5, align 8, !tbaa !32
  %13 = getelementptr inbounds nuw %struct.V4L2m2mContext, ptr %12, i32 0, i32 3
  store ptr %13, ptr %6, align 8, !tbaa !34
  %14 = load ptr, ptr %4, align 8, !tbaa !62
  %15 = icmp ne ptr %14, null
  br i1 %15, label %16, label %23

16:                                               ; preds = %2
  %17 = load ptr, ptr %4, align 8, !tbaa !62
  %18 = getelementptr inbounds nuw %struct.AVFrame, ptr %17, i32 0, i32 7
  %19 = load i32, ptr %18, align 8, !tbaa !98
  %20 = icmp eq i32 %19, 1
  br i1 %20, label %21, label %23

21:                                               ; preds = %16
  %22 = load ptr, ptr %5, align 8, !tbaa !32
  call void @v4l2_set_ext_ctrl(ptr noundef %22, i32 noundef 10029541, i32 noundef 0, ptr noundef @.str.51, i32 noundef 1)
  br label %23

23:                                               ; preds = %21, %16, %2
  %24 = load ptr, ptr %6, align 8, !tbaa !34
  %25 = load ptr, ptr %4, align 8, !tbaa !62
  %26 = call i32 @ff_v4l2_context_enqueue_frame(ptr noundef %24, ptr noundef %25)
  call void @llvm.lifetime.end.p0(i64 8, ptr %6) #8
  call void @llvm.lifetime.end.p0(i64 8, ptr %5) #8
  ret i32 %26
}

; Function Attrs: nounwind uwtable
define internal i32 @v4l2_receive_packet(ptr noundef %0, ptr noundef %1) #1 {
  %3 = alloca i32, align 4
  %4 = alloca ptr, align 8
  %5 = alloca ptr, align 8
  %6 = alloca ptr, align 8
  %7 = alloca ptr, align 8
  %8 = alloca ptr, align 8
  %9 = alloca ptr, align 8
  %10 = alloca i32, align 4
  %11 = alloca i32, align 4
  store ptr %0, ptr %4, align 8, !tbaa !4
  store ptr %1, ptr %5, align 8, !tbaa !57
  call void @llvm.lifetime.start.p0(i64 8, ptr %6) #8
  %12 = load ptr, ptr %4, align 8, !tbaa !4
  %13 = getelementptr inbounds nuw %struct.AVCodecContext, ptr %12, i32 0, i32 6
  %14 = load ptr, ptr %13, align 8, !tbaa !9
  %15 = getelementptr inbounds nuw %struct.V4L2m2mPriv, ptr %14, i32 0, i32 1
  %16 = load ptr, ptr %15, align 8, !tbaa !59
  store ptr %16, ptr %6, align 8, !tbaa !32
  call void @llvm.lifetime.start.p0(i64 8, ptr %7) #8
  %17 = load ptr, ptr %6, align 8, !tbaa !32
  %18 = getelementptr inbounds nuw %struct.V4L2m2mContext, ptr %17, i32 0, i32 2
  store ptr %18, ptr %7, align 8, !tbaa !34
  call void @llvm.lifetime.start.p0(i64 8, ptr %8) #8
  %19 = load ptr, ptr %6, align 8, !tbaa !32
  %20 = getelementptr inbounds nuw %struct.V4L2m2mContext, ptr %19, i32 0, i32 3
  store ptr %20, ptr %8, align 8, !tbaa !34
  call void @llvm.lifetime.start.p0(i64 8, ptr %9) #8
  %21 = load ptr, ptr %6, align 8, !tbaa !32
  %22 = getelementptr inbounds nuw %struct.V4L2m2mContext, ptr %21, i32 0, i32 10
  %23 = load ptr, ptr %22, align 8, !tbaa !61
  store ptr %23, ptr %9, align 8, !tbaa !62
  call void @llvm.lifetime.start.p0(i64 4, ptr %10) #8
  %24 = load ptr, ptr %6, align 8, !tbaa !32
  %25 = getelementptr inbounds nuw %struct.V4L2m2mContext, ptr %24, i32 0, i32 8
  %26 = load i32, ptr %25, align 8, !tbaa !63
  %27 = icmp ne i32 %26, 0
  br i1 %27, label %28, label %29

28:                                               ; preds = %2
  br label %96

29:                                               ; preds = %2
  %30 = load ptr, ptr %9, align 8, !tbaa !62
  %31 = getelementptr inbounds nuw %struct.AVFrame, ptr %30, i32 0, i32 16
  %32 = getelementptr inbounds [8 x ptr], ptr %31, i64 0, i64 0
  %33 = load ptr, ptr %32, align 8, !tbaa !64
  %34 = icmp ne ptr %33, null
  br i1 %34, label %51, label %35

35:                                               ; preds = %29
  %36 = load ptr, ptr %4, align 8, !tbaa !4
  %37 = load ptr, ptr %9, align 8, !tbaa !62
  %38 = call i32 @ff_encode_get_frame(ptr noundef %36, ptr noundef %37)
  store i32 %38, ptr %10, align 4, !tbaa !31
  %39 = load i32, ptr %10, align 4, !tbaa !31
  %40 = icmp slt i32 %39, 0
  br i1 %40, label %41, label %46

41:                                               ; preds = %35
  %42 = load i32, ptr %10, align 4, !tbaa !31
  %43 = icmp ne i32 %42, -541478725
  br i1 %43, label %44, label %46

44:                                               ; preds = %41
  %45 = load i32, ptr %10, align 4, !tbaa !31
  store i32 %45, ptr %3, align 4
  store i32 1, ptr %11, align 4
  br label %100

46:                                               ; preds = %41, %35
  %47 = load i32, ptr %10, align 4, !tbaa !31
  %48 = icmp eq i32 %47, -541478725
  br i1 %48, label %49, label %50

49:                                               ; preds = %46
  store ptr null, ptr %9, align 8, !tbaa !62
  br label %50

50:                                               ; preds = %49, %46
  br label %51

51:                                               ; preds = %50, %29
  %52 = load ptr, ptr %4, align 8, !tbaa !4
  %53 = load ptr, ptr %9, align 8, !tbaa !62
  %54 = call i32 @v4l2_send_frame(ptr noundef %52, ptr noundef %53)
  store i32 %54, ptr %10, align 4, !tbaa !31
  %55 = load i32, ptr %10, align 4, !tbaa !31
  %56 = icmp ne i32 %55, -11
  br i1 %56, label %57, label %59

57:                                               ; preds = %51
  %58 = load ptr, ptr %9, align 8, !tbaa !62
  call void @av_frame_unref(ptr noundef %58)
  br label %59

59:                                               ; preds = %57, %51
  %60 = load i32, ptr %10, align 4, !tbaa !31
  %61 = icmp slt i32 %60, 0
  br i1 %61, label %62, label %67

62:                                               ; preds = %59
  %63 = load i32, ptr %10, align 4, !tbaa !31
  %64 = icmp ne i32 %63, -11
  br i1 %64, label %65, label %67

65:                                               ; preds = %62
  %66 = load i32, ptr %10, align 4, !tbaa !31
  store i32 %66, ptr %3, align 4
  store i32 1, ptr %11, align 4
  br label %100

67:                                               ; preds = %62, %59
  %68 = load ptr, ptr %8, align 8, !tbaa !34
  %69 = getelementptr inbounds nuw %struct.V4L2Context, ptr %68, i32 0, i32 10
  %70 = load i32, ptr %69, align 4, !tbaa !65
  %71 = icmp ne i32 %70, 0
  br i1 %71, label %81, label %72

72:                                               ; preds = %67
  %73 = load ptr, ptr %8, align 8, !tbaa !34
  %74 = call i32 @ff_v4l2_context_set_status(ptr noundef %73, i32 noundef 1074026002)
  store i32 %74, ptr %10, align 4, !tbaa !31
  %75 = load i32, ptr %10, align 4, !tbaa !31
  %76 = icmp ne i32 %75, 0
  br i1 %76, label %77, label %80

77:                                               ; preds = %72
  %78 = load ptr, ptr %4, align 8, !tbaa !4
  call void (ptr, i32, ptr, ...) @av_log(ptr noundef %78, i32 noundef 16, ptr noundef @.str.49)
  %79 = load i32, ptr %10, align 4, !tbaa !31
  store i32 %79, ptr %3, align 4
  store i32 1, ptr %11, align 4
  br label %100

80:                                               ; preds = %72
  br label %81

81:                                               ; preds = %80, %67
  %82 = load ptr, ptr %7, align 8, !tbaa !34
  %83 = getelementptr inbounds nuw %struct.V4L2Context, ptr %82, i32 0, i32 10
  %84 = load i32, ptr %83, align 4, !tbaa !65
  %85 = icmp ne i32 %84, 0
  br i1 %85, label %95, label %86

86:                                               ; preds = %81
  %87 = load ptr, ptr %7, align 8, !tbaa !34
  %88 = call i32 @ff_v4l2_context_set_status(ptr noundef %87, i32 noundef 1074026002)
  store i32 %88, ptr %10, align 4, !tbaa !31
  %89 = load i32, ptr %10, align 4, !tbaa !31
  %90 = icmp ne i32 %89, 0
  br i1 %90, label %91, label %94

91:                                               ; preds = %86
  %92 = load ptr, ptr %4, align 8, !tbaa !4
  call void (ptr, i32, ptr, ...) @av_log(ptr noundef %92, i32 noundef 16, ptr noundef @.str.50)
  %93 = load i32, ptr %10, align 4, !tbaa !31
  store i32 %93, ptr %3, align 4
  store i32 1, ptr %11, align 4
  br label %100

94:                                               ; preds = %86
  br label %95

95:                                               ; preds = %94, %81
  br label %96

96:                                               ; preds = %95, %28
  %97 = load ptr, ptr %7, align 8, !tbaa !34
  %98 = load ptr, ptr %5, align 8, !tbaa !57
  %99 = call i32 @ff_v4l2_context_dequeue_packet(ptr noundef %97, ptr noundef %98)
  store i32 %99, ptr %3, align 4
  store i32 1, ptr %11, align 4
  br label %100

100:                                              ; preds = %96, %91, %77, %65, %44
  call void @llvm.lifetime.end.p0(i64 4, ptr %10) #8
  call void @llvm.lifetime.end.p0(i64 8, ptr %9) #8
  call void @llvm.lifetime.end.p0(i64 8, ptr %8) #8
  call void @llvm.lifetime.end.p0(i64 8, ptr %7) #8
  call void @llvm.lifetime.end.p0(i64 8, ptr %6) #8
  %101 = load i32, ptr %3, align 4
  ret i32 %101
}