; Function Attrs: nounwind uwtable
define internal i32 @v4l2_receive_packet(ptr noundef %0, ptr noundef %1) #1 {
  %3 = alloca %struct.v4l2_ext_controls, align 8
  %4 = alloca %struct.v4l2_ext_control, align 4
  %5 = getelementptr inbounds nuw i8, ptr %0, i64 32
  %6 = load ptr, ptr %5, align 8, !tbaa !4
  %7 = getelementptr inbounds nuw i8, ptr %6, i64 8
  %8 = load ptr, ptr %7, align 8, !tbaa !79
  %9 = getelementptr inbounds nuw i8, ptr %8, i64 4104
  %10 = getelementptr inbounds nuw i8, ptr %8, i64 4376
  %11 = getelementptr inbounds nuw i8, ptr %8, i64 4808
  %12 = load ptr, ptr %11, align 8, !tbaa !81
  %13 = getelementptr inbounds nuw i8, ptr %8, i64 4696
  %14 = load i32, ptr %13, align 8, !tbaa !82
  %.not = icmp eq i32 %14, 0
  br i1 %.not, label %15, label %59

15:                                               ; preds = %2
  %16 = getelementptr inbounds nuw i8, ptr %12, i64 184
  %17 = load ptr, ptr %16, align 8, !tbaa !83
  %.not39 = icmp eq ptr %17, null
  br i1 %.not39, label %18, label %._crit_edge

18:                                               ; preds = %15
  %19 = tail call i32 @ff_encode_get_frame(ptr noundef nonnull %0, ptr noundef nonnull %12) #8
  %20 = icmp slt i32 %19, 0
  %21 = icmp ne i32 %19, -541478725
  %or.cond = and i1 %20, %21
  br i1 %or.cond, label %61, label %22

22:                                               ; preds = %18
  %23 = icmp eq i32 %19, -541478725
  %.val45.pre = load ptr, ptr %5, align 8, !tbaa !4
  %24 = getelementptr i8, ptr %.val45.pre, i64 8
  %.val.val = load ptr, ptr %24, align 8, !tbaa !79
  br i1 %23, label %v4l2_send_frame.exit, label %._crit_edge

._crit_edge:                                      ; preds = %22, %15
  %.val.val46 = phi ptr [ %8, %15 ], [ %.val.val, %22 ]
  %25 = getelementptr inbounds nuw i8, ptr %12, i64 120
  %26 = load i32, ptr %25, align 8, !tbaa !84
  %27 = icmp eq i32 %26, 1
  br i1 %27, label %28, label %v4l2_send_frame.exit

28:                                               ; preds = %._crit_edge
  call void @llvm.lifetime.start.p0(i64 32, ptr nonnull %3) #8
  %29 = getelementptr inbounds nuw i8, ptr %3, i64 8
  call void @llvm.memset.p0.i64(ptr noundef nonnull align 8 dereferenceable(16) %29, i8 0, i64 16, i1 false)
  call void @llvm.lifetime.start.p0(i64 20, ptr nonnull %4) #8
  %30 = getelementptr inbounds nuw i8, ptr %4, i64 4
  call void @llvm.memset.p0.i64(ptr noundef nonnull align 4 dereferenceable(16) %30, i8 0, i64 16, i1 false)
  store i32 10027008, ptr %3, align 8, !tbaa !45
  %31 = getelementptr inbounds nuw i8, ptr %3, i64 24
  store ptr %4, ptr %31, align 8, !tbaa !52
  %32 = getelementptr inbounds nuw i8, ptr %3, i64 4
  store i32 1, ptr %32, align 4, !tbaa !55
  store i32 10029541, ptr %4, align 4, !tbaa !56
  %33 = getelementptr inbounds nuw i8, ptr %.val.val46, i64 4096
  %34 = load i32, ptr %33, align 8, !tbaa !50
  %35 = call i32 (i32, i64, ...) @ioctl(i32 noundef %34, i64 noundef 3223344712, ptr noundef nonnull %3) #8
  %36 = icmp slt i32 %35, 0
  %37 = getelementptr inbounds nuw i8, ptr %.val.val46, i64 4648
  %38 = load ptr, ptr %37, align 8, !tbaa !40
  br i1 %36, label %39, label %43

39:                                               ; preds = %28
  %40 = tail call ptr @__errno_location() #9
  %41 = load i32, ptr %40, align 4, !tbaa !58
  %42 = call ptr @strerror(i32 noundef %41) #8
  call void (ptr, i32, ptr, ...) @av_log(ptr noundef %38, i32 noundef 24, ptr noundef nonnull @.str.47, ptr noundef nonnull @.str.51, ptr noundef %42) #8
  br label %v4l2_set_ext_ctrl.exit.i

43:                                               ; preds = %28
  call void (ptr, i32, ptr, ...) @av_log(ptr noundef %38, i32 noundef 48, ptr noundef nonnull @.str.48, ptr noundef nonnull @.str.51, i32 noundef 0) #8
  br label %v4l2_set_ext_ctrl.exit.i

v4l2_set_ext_ctrl.exit.i:                         ; preds = %43, %39
  call void @llvm.lifetime.end.p0(i64 20, ptr nonnull %4) #8
  call void @llvm.lifetime.end.p0(i64 32, ptr nonnull %3) #8
  br label %v4l2_send_frame.exit

v4l2_send_frame.exit:                             ; preds = %22, %._crit_edge, %v4l2_set_ext_ctrl.exit.i
  %.val.val51 = phi ptr [ %.val.val46, %._crit_edge ], [ %.val.val46, %v4l2_set_ext_ctrl.exit.i ], [ %.val.val, %22 ]
  %.049 = phi ptr [ %12, %._crit_edge ], [ %12, %v4l2_set_ext_ctrl.exit.i ], [ null, %22 ]
  %44 = getelementptr inbounds nuw i8, ptr %.val.val51, i64 4376
  %45 = call i32 @ff_v4l2_context_enqueue_frame(ptr noundef nonnull %44, ptr noundef %.049) #8
  %.not54 = icmp eq i32 %45, -11
  br i1 %.not54, label %.thread52, label %46

46:                                               ; preds = %v4l2_send_frame.exit
  call void @av_frame_unref(ptr noundef %.049) #8
  %47 = icmp slt i32 %45, 0
  br i1 %47, label %61, label %.thread52

.thread52:                                        ; preds = %v4l2_send_frame.exit, %46
  %48 = getelementptr inbounds nuw i8, ptr %8, i64 4636
  %49 = load i32, ptr %48, align 4, !tbaa !89
  %.not40 = icmp eq i32 %49, 0
  br i1 %.not40, label %50, label %53

50:                                               ; preds = %.thread52
  %51 = call i32 @ff_v4l2_context_set_status(ptr noundef nonnull %10, i32 noundef 1074026002) #8
  %.not41 = icmp eq i32 %51, 0
  br i1 %.not41, label %53, label %52

52:                                               ; preds = %50
  call void (ptr, i32, ptr, ...) @av_log(ptr noundef nonnull %0, i32 noundef 16, ptr noundef nonnull @.str.49) #8
  br label %61

53:                                               ; preds = %50, %.thread52
  %54 = getelementptr inbounds nuw i8, ptr %8, i64 4364
  %55 = load i32, ptr %54, align 4, !tbaa !89
  %.not42 = icmp eq i32 %55, 0
  br i1 %.not42, label %56, label %59

56:                                               ; preds = %53
  %57 = call i32 @ff_v4l2_context_set_status(ptr noundef nonnull %9, i32 noundef 1074026002) #8
  %.not43 = icmp eq i32 %57, 0
  br i1 %.not43, label %59, label %58

58:                                               ; preds = %56
  call void (ptr, i32, ptr, ...) @av_log(ptr noundef nonnull %0, i32 noundef 16, ptr noundef nonnull @.str.50) #8
  br label %61

59:                                               ; preds = %53, %56, %2
  %60 = call i32 @ff_v4l2_context_dequeue_packet(ptr noundef nonnull %9, ptr noundef %1) #8
  br label %61

61:                                               ; preds = %46, %18, %59, %58, %52
  %.034 = phi i32 [ %60, %59 ], [ %57, %58 ], [ %51, %52 ], [ %19, %18 ], [ %45, %46 ]
  ret i32 %.034
}